target datalayout = "e-m:e-p270:32:32-p271:32:32-p272:64:64-i64:64-i128:128-f80:128-n8:16:32:64-S128"
target triple = "x86_64-pc-linux-gnu"

%struct.Vec_Int_t_ = type { i32, i32, ptr }
%struct.Pla_Man_t_ = type { ptr, ptr, i32, i32, i32, i32, i32, %struct.Vec_Int_t_, %struct.Vec_Int_t_, %struct.Vec_Wrd_t_, %struct.Vec_Wrd_t_, %struct.Vec_Wec_t_, %struct.Vec_Wec_t_, %struct.Vec_Int_t_ }
%struct.Vec_Wrd_t_ = type { i32, i32, ptr }
%struct.Vec_Wec_t_ = type { i32, i32, ptr }

; Function Attrs: inlinehint nounwind uwtable
define internal ptr @Vec_WrdEntryP(ptr noundef %0, i32 noundef %1) #4 {
  %3 = alloca ptr, align 8
  %4 = alloca i32, align 4
  store ptr %0, ptr %3, align 8, !tbaa !68
  store i32 %1, ptr %4, align 4, !tbaa !3
  %5 = load ptr, ptr %3, align 8, !tbaa !68
  %6 = getelementptr inbounds nuw %struct.Vec_Wrd_t_, ptr %5, i32 0, i32 2
  %7 = load ptr, ptr %6, align 8, !tbaa !70
  %8 = load i32, ptr %4, align 4, !tbaa !3
  %9 = sext i32 %8 to i64
  %10 = getelementptr inbounds i64, ptr %7, i64 %9
  ret ptr %10
}

; Function Attrs: inlinehint nounwind uwtable
define internal ptr @Pla_CubeOut(ptr noundef %0, i32 noundef %1) #4 {
  %3 = alloca ptr, align 8
  %4 = alloca i32, align 4
  store ptr %0, ptr %3, align 8, !tbaa !33
  store i32 %1, ptr %4, align 4, !tbaa !3
  %5 = load ptr, ptr %3, align 8, !tbaa !33
  %6 = getelementptr inbounds nuw %struct.Pla_Man_t_, ptr %5, i32 0, i32 10
  %7 = load i32, ptr %4, align 4, !tbaa !3
  %8 = load ptr, ptr %3, align 8, !tbaa !33
  %9 = getelementptr inbounds nuw %struct.Pla_Man_t_, ptr %8, i32 0, i32 6
  %10 = load i32, ptr %9, align 8, !tbaa !48
  %11 = mul nsw i32 %7, %10
  %12 = call ptr @Vec_WrdEntryP(ptr noundef %6, i32 noundef %11)
  ret ptr %12
}

; Function Attrs: inlinehint nounwind uwtable
define internal void @Pla_CubeSetLit(ptr noundef %0, i32 noundef %1, i32 noundef %2) #4 {
  %4 = alloca ptr, align 8
  %5 = alloca i32, align 4
  %6 = alloca i32, align 4
  store ptr %0, ptr %4, align 8, !tbaa !35
  store i32 %1, ptr %5, align 4, !tbaa !3
  store i32 %2, ptr %6, align 4, !tbaa !3
  %7 = load i32, ptr %6, align 4, !tbaa !3
  %8 = zext i32 %7 to i64
  %9 = load i32, ptr %5, align 4, !tbaa !3
  %10 = shl i32 %9, 1
  %11 = and i32 %10, 63
  %12 = zext i32 %11 to i64
  %13 = shl i64 %8, %12
  %14 = load ptr, ptr %4, align 8, !tbaa !35
  %15 = load i32, ptr %5, align 4, !tbaa !3
  %16 = ashr i32 %15, 5
  %17 = sext i32 %16 to i64
  %18 = getelementptr inbounds i64, ptr %14, i64 %17
  %19 = load i64, ptr %18, align 8, !tbaa !49
  %20 = or i64 %19, %13
  store i64 %20, ptr %18, align 8, !tbaa !49
  ret void
}

; Function Attrs: inlinehint nounwind uwtable
define internal i32 @Pla_CubeGetLit(ptr noundef %0, i32 noundef %1) #4 {
  %3 = alloca ptr, align 8
  %4 = alloca i32, align 4
  store ptr %0, ptr %3, align 8, !tbaa !35
  store i32 %1, ptr %4, align 4, !tbaa !3
  %5 = load ptr, ptr %3, align 8, !tbaa !35
  %6 = load i32, ptr %4, align 4, !tbaa !3
  %7 = ashr i32 %6, 5
  %8 = sext i32 %7 to i64
  %9 = getelementptr inbounds i64, ptr %5, i64 %8
  %10 = load i64, ptr %9, align 8, !tbaa !49
  %11 = load i32, ptr %4, align 4, !tbaa !3
  %12 = shl i32 %11, 1
  %13 = and i32 %12, 63
  %14 = zext i32 %13 to i64
  %15 = lshr i64 %10, %14
  %16 = trunc i64 %15 to i32
  %17 = and i32 %16, 3
  ret i32 %17
}

; Function Attrs: inlinehint nounwind uwtable
define internal i32 @Pla_ManInNum(ptr noundef %0) #4 {
  %2 = alloca ptr, align 8
  store ptr %0, ptr %2, align 8, !tbaa !33
  %3 = load ptr, ptr %2, align 8, !tbaa !33
  %4 = getelementptr inbounds nuw %struct.Pla_Man_t_, ptr %3, i32 0, i32 3
  %5 = load i32, ptr %4, align 4, !tbaa !45
  ret i32 %5
}

; Function Attrs: inlinehint nounwind uwtable
define internal i32 @Vec_IntEntry(ptr noundef %0, i32 noundef %1) #4 {
  %3 = alloca ptr, align 8
  %4 = alloca i32, align 4
  store ptr %0, ptr %3, align 8, !tbaa !24
  store i32 %1, ptr %4, align 4, !tbaa !3
  %5 = load ptr, ptr %3, align 8, !tbaa !24
  %6 = getelementptr inbounds nuw %struct.Vec_Int_t_, ptr %5, i32 0, i32 2
  %7 = load ptr, ptr %6, align 8, !tbaa !30
  %8 = load i32, ptr %4, align 4, !tbaa !3
  %9 = sext i32 %8 to i64
  %10 = getelementptr inbounds i32, ptr %7, i64 %9
  %11 = load i32, ptr %10, align 4, !tbaa !3
  ret i32 %11
}

; Function Attrs: inlinehint nounwind uwtable
define internal ptr @Pla_CubeIn(ptr noundef %0, i32 noundef %1) #4 {
  %3 = alloca ptr, align 8
  %4 = alloca i32, align 4
  store ptr %0, ptr %3, align 8, !tbaa !33
  store i32 %1, ptr %4, align 4, !tbaa !3
  %5 = load ptr, ptr %3, align 8, !tbaa !33
  %6 = getelementptr inbounds nuw %struct.Pla_Man_t_, ptr %5, i32 0, i32 9
  %7 = load i32, ptr %4, align 4, !tbaa !3
  %8 = load ptr, ptr %3, align 8, !tbaa !33
  %9 = getelementptr inbounds nuw %struct.Pla_Man_t_, ptr %8, i32 0, i32 5
  %10 = load i32, ptr %9, align 4, !tbaa !47
  %11 = mul nsw i32 %7, %10
  %12 = call ptr @Vec_WrdEntryP(ptr noundef %6, i32 noundef %11)
  ret ptr %12
}

; Function Attrs: inlinehint nounwind uwtable
define internal i32 @Pla_ManCubeNum(ptr noundef %0) #4 {
  %2 = alloca ptr, align 8
  store ptr %0, ptr %2, align 8, !tbaa !33
  %3 = load ptr, ptr %2, align 8, !tbaa !33
  %4 = getelementptr inbounds nuw %struct.Pla_Man_t_, ptr %3, i32 0, i32 7
  %5 = call i32 @Vec_IntSize(ptr noundef %4)
  ret i32 %5
}

; Function Attrs: inlinehint nounwind uwtable
define internal i32 @Vec_IntSize(ptr noundef %0) #4 {
  %2 = alloca ptr, align 8
  store ptr %0, ptr %2, align 8, !tbaa !24
  %3 = load ptr, ptr %2, align 8, !tbaa !24
  %4 = getelementptr inbounds nuw %struct.Vec_Int_t_, ptr %3, i32 0, i32 1
  %5 = load i32, ptr %4, align 4, !tbaa !27
  ret i32 %5
}

; Function Attrs: nounwind uwtable
define ptr @Pla_GenFromMinterms(ptr noundef %0, ptr noundef %1, i32 noundef %2) #0 {
  %4 = alloca ptr, align 8
  %5 = alloca ptr, align 8
  %6 = alloca i32, align 4
  %7 = alloca ptr, align 8
  %8 = alloca i32, align 4
  %9 = alloca i32, align 4
  %10 = alloca i32, align 4
  %11 = alloca i32, align 4
  %12 = alloca ptr, align 8
  store ptr %0, ptr %4, align 8, !tbaa !31
  store ptr %1, ptr %5, align 8, !tbaa !24
  store i32 %2, ptr %6, align 4, !tbaa !3
  call void @llvm.lifetime.start.p0(i64 8, ptr %7) #11
  %13 = load ptr, ptr %4, align 8, !tbaa !31
  %14 = load i32, ptr %6, align 4, !tbaa !3
  %15 = load ptr, ptr %5, align 8, !tbaa !24
  %16 = call i32 @Vec_IntSize(ptr noundef %15)
  %17 = call ptr @Pla_ManAlloc(ptr noundef %13, i32 noundef %14, i32 noundef 1, i32 noundef %16)
  store ptr %17, ptr %7, align 8, !tbaa !33
  call void @llvm.lifetime.start.p0(i64 4, ptr %8) #11
  call void @llvm.lifetime.start.p0(i64 4, ptr %9) #11
  call void @llvm.lifetime.start.p0(i64 4, ptr %10) #11
  call void @llvm.lifetime.start.p0(i64 4, ptr %11) #11
  call void @llvm.lifetime.start.p0(i64 8, ptr %12) #11
  store i32 0, ptr %8, align 4, !tbaa !3
  br label %18

18:                                               ; preds = %57, %3
  %19 = load i32, ptr %8, align 4, !tbaa !3
  %20 = load ptr, ptr %7, align 8, !tbaa !33
  %21 = call i32 @Pla_ManCubeNum(ptr noundef %20)
  %22 = icmp slt i32 %19, %21
  br i1 %22, label %23, label %27

23:                                               ; preds = %18
  %24 = load ptr, ptr %7, align 8, !tbaa !33
  %25 = load i32, ptr %8, align 4, !tbaa !3
  %26 = call ptr @Pla_CubeIn(ptr noundef %24, i32 noundef %25)
  store ptr %26, ptr %12, align 8, !tbaa !35
  br label %27

27:                                               ; preds = %23, %18
  %28 = phi i1 [ false, %18 ], [ true, %23 ]
  br i1 %28, label %29, label %60

29:                                               ; preds = %27
  %30 = load ptr, ptr %5, align 8, !tbaa !24
  %31 = load i32, ptr %8, align 4, !tbaa !3
  %32 = call i32 @Vec_IntEntry(ptr noundef %30, i32 noundef %31)
  store i32 %32, ptr %11, align 4, !tbaa !3
  store i32 0, ptr %9, align 4, !tbaa !3
  br label %33

33:                                               ; preds = %53, %29
  %34 = load i32, ptr %9, align 4, !tbaa !3
  %35 = load ptr, ptr %7, align 8, !tbaa !33
  %36 = call i32 @Pla_ManInNum(ptr noundef %35)
  %37 = icmp slt i32 %34, %36
  br i1 %37, label %38, label %42

38:                                               ; preds = %33
  %39 = load ptr, ptr %12, align 8, !tbaa !35
  %40 = load i32, ptr %9, align 4, !tbaa !3
  %41 = call i32 @Pla_CubeGetLit(ptr noundef %39, i32 noundef %40)
  store i32 %41, ptr %10, align 4, !tbaa !3
  br label %42

42:                                               ; preds = %38, %33
  %43 = phi i1 [ false, %33 ], [ true, %38 ]
  br i1 %43, label %44, label %56

44:                                               ; preds = %42
  %45 = load ptr, ptr %12, align 8, !tbaa !35
  %46 = load i32, ptr %9, align 4, !tbaa !3
  %47 = load i32, ptr %11, align 4, !tbaa !3
  %48 = load i32, ptr %9, align 4, !tbaa !3
  %49 = ashr i32 %47, %48
  %50 = and i32 %49, 1
  %51 = icmp ne i32 %50, 0
  %52 = select i1 %51, i32 2, i32 1
  call void @Pla_CubeSetLit(ptr noundef %45, i32 noundef %46, i32 noundef %52)
  br label %53

53:                                               ; preds = %44
  %54 = load i32, ptr %9, align 4, !tbaa !3
  %55 = add nsw i32 %54, 1
  store i32 %55, ptr %9, align 4, !tbaa !3
  br label %33, !llvm.loop !37

56:                                               ; preds = %42
  br label %57

57:                                               ; preds = %56
  %58 = load i32, ptr %8, align 4, !tbaa !3
  %59 = add nsw i32 %58, 1
  store i32 %59, ptr %8, align 4, !tbaa !3
  br label %18, !llvm.loop !38

60:                                               ; preds = %27
  store i32 0, ptr %8, align 4, !tbaa !3
  br label %61

61:                                               ; preds = %74, %60
  %62 = load i32, ptr %8, align 4, !tbaa !3
  %63 = load ptr, ptr %7, align 8, !tbaa !33
  %64 = call i32 @Pla_ManCubeNum(ptr noundef %63)
  %65 = icmp slt i32 %62, %64
  br i1 %65, label %66, label %70

66:                                               ; preds = %61
  %67 = load ptr, ptr %7, align 8, !tbaa !33
  %68 = load i32, ptr %8, align 4, !tbaa !3
  %69 = call ptr @Pla_CubeOut(ptr noundef %67, i32 noundef %68)
  store ptr %69, ptr %12, align 8, !tbaa !35
  br label %70

70:                                               ; preds = %66, %61
  %71 = phi i1 [ false, %61 ], [ true, %66 ]
  br i1 %71, label %72, label %77

72:                                               ; preds = %70
  %73 = load ptr, ptr %12, align 8, !tbaa !35
  call void @Pla_CubeSetLit(ptr noundef %73, i32 noundef 0, i32 noundef 2)
  br label %74

74:                                               ; preds = %72
  %75 = load i32, ptr %8, align 4, !tbaa !3
  %76 = add nsw i32 %75, 1
  store i32 %76, ptr %8, align 4, !tbaa !3
  br label %61, !llvm.loop !39

77:                                               ; preds = %70
  %78 = load ptr, ptr %7, align 8, !tbaa !33
  call void @llvm.lifetime.end.p0(i64 8, ptr %12) #11
  call void @llvm.lifetime.end.p0(i64 4, ptr %11) #11
  call void @llvm.lifetime.end.p0(i64 4, ptr %10) #11
  call void @llvm.lifetime.end.p0(i64 4, ptr %9) #11
  call void @llvm.lifetime.end.p0(i64 4, ptr %8) #11
  call void @llvm.lifetime.end.p0(i64 8, ptr %7) #11
  ret ptr %78
}