; Function Attrs: nounwind uwtable
define noalias noundef ptr @Pla_GenFromMinterms(ptr noundef %0, ptr noundef readonly captures(none) %1, i32 noundef %2) local_unnamed_addr #0 {
  %4 = getelementptr i8, ptr %1, i64 4
  %.val = load i32, ptr %4, align 4, !tbaa !21
  %5 = tail call fastcc ptr @Pla_ManAlloc(ptr noundef %0, i32 noundef %2, i32 noundef 1, i32 noundef %.val)
  %6 = getelementptr i8, ptr %5, i64 44
  %.val30 = load i32, ptr %6, align 4, !tbaa !21
  %7 = icmp sgt i32 %.val30, 0
  br i1 %7, label %.lr.ph40, label %.critedge4

.lr.ph40:                                         ; preds = %3
  %8 = getelementptr i8, ptr %5, i64 80
  %.val33 = load ptr, ptr %8, align 8, !tbaa !26
  %9 = getelementptr i8, ptr %1, i64 8
  %.val34 = load ptr, ptr %9, align 8, !tbaa !24
  %10 = getelementptr i8, ptr %5, i64 20
  %.val35 = load i32, ptr %10, align 4, !tbaa !29
  %11 = icmp sgt i32 %.val35, 0
  br i1 %11, label %.lr.ph.us.preheader, label %.lr.ph

.lr.ph.us.preheader:                              ; preds = %.lr.ph40
  %12 = getelementptr i8, ptr %5, i64 28
  %.val32 = load i32, ptr %12, align 4, !tbaa !34
  %13 = sext i32 %.val32 to i64
  %wide.trip.count = zext nneg i32 %.val30 to i64
  br label %.lr.ph.us

.lr.ph.us:                                        ; preds = %.lr.ph.us.preheader, %..critedge2_crit_edge.us
  %indvars.iv = phi i64 [ 0, %.lr.ph.us.preheader ], [ %indvars.iv.next, %..critedge2_crit_edge.us ]
  %14 = mul nsw i64 %indvars.iv, %13
  %15 = getelementptr inbounds i64, ptr %.val33, i64 %14
  %16 = getelementptr inbounds nuw i32, ptr %.val34, i64 %indvars.iv
  %17 = load i32, ptr %16, align 4, !tbaa !17
  br label %18

18:                                               ; preds = %.lr.ph.us, %18
  %.02938.us = phi i32 [ 0, %.lr.ph.us ], [ %31, %18 ]
  %19 = lshr i32 %.02938.us, 5
  %20 = zext nneg i32 %19 to i64
  %21 = getelementptr inbounds nuw i64, ptr %15, i64 %20
  %22 = load i64, ptr %21, align 8, !tbaa !35
  %23 = shl nuw i32 %.02938.us, 1
  %24 = and i32 %23, 62
  %25 = zext nneg i32 %24 to i64
  %26 = shl nuw i32 1, %.02938.us
  %27 = and i32 %26, %17
  %.not.us = icmp eq i32 %27, 0
  %28 = select i1 %.not.us, i64 1, i64 2
  %29 = shl nuw i64 %28, %25
  %30 = or i64 %22, %29
  store i64 %30, ptr %21, align 8, !tbaa !35
  %31 = add nuw nsw i32 %.02938.us, 1
  %exitcond.not = icmp eq i32 %31, %.val35
  br i1 %exitcond.not, label %..critedge2_crit_edge.us, label %18, !llvm.loop !37

..critedge2_crit_edge.us:                         ; preds = %18
  %indvars.iv.next = add nuw nsw i64 %indvars.iv, 1
  %exitcond44.not = icmp eq i64 %indvars.iv.next, %wide.trip.count
  br i1 %exitcond44.not, label %.lr.ph, label %.lr.ph.us, !llvm.loop !38

.lr.ph:                                           ; preds = %..critedge2_crit_edge.us, %.lr.ph40
  %32 = getelementptr i8, ptr %5, i64 32
  %.val36 = load i32, ptr %32, align 8, !tbaa !39
  %33 = getelementptr i8, ptr %5, i64 96
  %.val37 = load ptr, ptr %33, align 8, !tbaa !26
  %34 = sext i32 %.val36 to i64
  %wide.trip.count48 = zext nneg i32 %.val30 to i64
  br label %.critedge

.critedge:                                        ; preds = %.lr.ph, %.critedge
  %indvars.iv45 = phi i64 [ 0, %.lr.ph ], [ %indvars.iv.next46, %.critedge ]
  %35 = mul nsw i64 %indvars.iv45, %34
  %36 = getelementptr inbounds i64, ptr %.val37, i64 %35
  %37 = load i64, ptr %36, align 8, !tbaa !35
  %38 = or i64 %37, 2
  store i64 %38, ptr %36, align 8, !tbaa !35
  %indvars.iv.next46 = add nuw nsw i64 %indvars.iv45, 1
  %exitcond49.not = icmp eq i64 %indvars.iv.next46, %wide.trip.count48
  br i1 %exitcond49.not, label %.critedge4, label %.critedge, !llvm.loop !40

.critedge4:                                       ; preds = %.critedge, %3
  ret ptr %5
}